; Function Attrs: mustprogress uwtable
define noundef i32 @_ZN8proxygen11HTTP1xCodec13onHeaderValueEPKcm(ptr noundef nonnull align 8 dereferenceable(428) %this, ptr noundef %buf, i64 noundef %len) local_unnamed_addr #3 align 2 {
entry:
  %headerParseState_.i = getelementptr inbounds i8, ptr %this, i64 380
  %0 = load i8, ptr %headerParseState_.i, align 4
  %1 = add i8 %0, -1
  %spec.select.i = icmp ult i8 %1, 3
  %. = select i1 %spec.select.i, i8 3, i8 6
  store i8 %., ptr %headerParseState_.i, align 4
  %currentHeaderValue_ = getelementptr inbounds i8, ptr %this, i64 176
  %call3 = tail call noundef nonnull align 8 dereferenceable(32) ptr @_ZNSt7__cxx1112basic_stringIcSt11char_traitsIcESaIcEE6appendEPKcm(ptr noundef nonnull align 8 dereferenceable(32) %currentHeaderValue_, ptr noundef %buf, i64 noundef %len)
  ret i32 0
}